target datalayout = "e-m:e-p270:32:32-p271:32:32-p272:64:64-i64:64-i128:128-f80:128-n8:16:32:64-S128"
target triple = "x86_64-pc-linux-gnu"

%struct.ImVec2 = type { float, float }
%struct.ImFontConfig = type { ptr, i32, i8, i8, i8, i32, i32, i32, float, %struct.ImVec2, ptr, float, float, float, i32, float, float, i16, [40 x i8], ptr }

@_ZN12ImFontConfigC1Ev = unnamed_addr alias void (ptr), ptr @_ZN12ImFontConfigC2Ev

; Function Attrs: mustprogress uwtable
define noundef ptr @_ZN11ImFontAtlas20AddFontFromMemoryTTFEPvifPK12ImFontConfigPKt(ptr noundef nonnull align 8 dereferenceable(676) %0, ptr noundef %1, i32 noundef %2, float noundef %3, ptr noundef %4, ptr noundef %5) #6 align 2 {
  %7 = alloca ptr, align 8
  %8 = alloca ptr, align 8
  %9 = alloca i32, align 4
  %10 = alloca float, align 4
  %11 = alloca ptr, align 8
  %12 = alloca ptr, align 8
  %13 = alloca %struct.ImFontConfig, align 8
  store ptr %0, ptr %7, align 8, !tbaa !298
  store ptr %1, ptr %8, align 8, !tbaa !129
  store i32 %2, ptr %9, align 4, !tbaa !27
  store float %3, ptr %10, align 4, !tbaa !11
  store ptr %4, ptr %11, align 8, !tbaa !289
  store ptr %5, ptr %12, align 8, !tbaa !121
  %14 = load ptr, ptr %7, align 8
  call void @llvm.lifetime.start.p0(i64 128, ptr %13) #17
  %15 = load ptr, ptr %11, align 8, !tbaa !289
  %16 = icmp ne ptr %15, null
  br i1 %16, label %17, label %19

17:                                               ; preds = %6
  %18 = load ptr, ptr %11, align 8, !tbaa !289
  call void @llvm.memcpy.p0.p0.i64(ptr align 8 %13, ptr align 8 %18, i64 128, i1 false), !tbaa.struct !348
  br label %20

19:                                               ; preds = %6
  call void @_ZN12ImFontConfigC1Ev(ptr noundef nonnull align 8 dereferenceable(128) %13)
  br label %20

20:                                               ; preds = %19, %17
  %21 = load ptr, ptr %8, align 8, !tbaa !129
  %22 = getelementptr inbounds nuw %struct.ImFontConfig, ptr %13, i32 0, i32 0
  store ptr %21, ptr %22, align 8, !tbaa !324
  %23 = load i32, ptr %9, align 4, !tbaa !27
  %24 = getelementptr inbounds nuw %struct.ImFontConfig, ptr %13, i32 0, i32 1
  store i32 %23, ptr %24, align 8, !tbaa !346
  %25 = load float, ptr %10, align 4, !tbaa !11
  %26 = fcmp ogt float %25, 0.000000e+00
  br i1 %26, label %27, label %29

27:                                               ; preds = %20
  %28 = load float, ptr %10, align 4, !tbaa !11
  br label %32

29:                                               ; preds = %20
  %30 = getelementptr inbounds nuw %struct.ImFontConfig, ptr %13, i32 0, i32 8
  %31 = load float, ptr %30, align 4, !tbaa !347
  br label %32

32:                                               ; preds = %29, %27
  %33 = phi float [ %28, %27 ], [ %31, %29 ]
  %34 = getelementptr inbounds nuw %struct.ImFontConfig, ptr %13, i32 0, i32 8
  store float %33, ptr %34, align 4, !tbaa !347
  %35 = load ptr, ptr %12, align 8, !tbaa !121
  %36 = icmp ne ptr %35, null
  br i1 %36, label %37, label %40

37:                                               ; preds = %32
  %38 = load ptr, ptr %12, align 8, !tbaa !121
  %39 = getelementptr inbounds nuw %struct.ImFontConfig, ptr %13, i32 0, i32 10
  store ptr %38, ptr %39, align 8, !tbaa !351
  br label %40

40:                                               ; preds = %37, %32
  %41 = call noundef ptr @_ZN11ImFontAtlas7AddFontEPK12ImFontConfig(ptr noundef nonnull align 8 dereferenceable(676) %14, ptr noundef %13)
  call void @llvm.lifetime.end.p0(i64 128, ptr %13) #17
  ret ptr %41
}