; Function Attrs: mustprogress uwtable
define noundef ptr @_ZN11ImFontAtlas20AddFontFromMemoryTTFEPvifPK12ImFontConfigPKt(ptr noundef nonnull align 8 captures(none) dereferenceable(676) %0, ptr noundef %1, i32 noundef %2, float noundef %3, ptr noundef readonly %4, ptr noundef %5) local_unnamed_addr #12 align 2 {
  %7 = alloca %struct.ImFontConfig, align 8
  call void @llvm.lifetime.start.p0(i64 128, ptr nonnull %7) #42
  %.not = icmp eq ptr %4, null
  br i1 %.not, label %9, label %8

8:                                                ; preds = %6
  call void @llvm.memcpy.p0.p0.i64(ptr noundef nonnull align 8 dereferenceable(128) %7, ptr noundef nonnull align 8 dereferenceable(128) %4, i64 128, i1 false), !tbaa.struct !289
  br label %10

9:                                                ; preds = %6
  call void @_ZN12ImFontConfigC1Ev(ptr noundef nonnull align 8 dereferenceable(128) %7)
  br label %10

10:                                               ; preds = %9, %8
  store ptr %1, ptr %7, align 8, !tbaa !264
  %11 = getelementptr inbounds nuw i8, ptr %7, i64 8
  store i32 %2, ptr %11, align 8, !tbaa !288
  %12 = fcmp ogt float %3, 0.000000e+00
  %13 = getelementptr inbounds nuw i8, ptr %7, i64 28
  %14 = load float, ptr %13, align 4
  %15 = select i1 %12, float %3, float %14
  store float %15, ptr %13, align 4, !tbaa !275
  %.not9 = icmp eq ptr %5, null
  br i1 %.not9, label %18, label %16

16:                                               ; preds = %10
  %17 = getelementptr inbounds nuw i8, ptr %7, i64 40
  store ptr %5, ptr %17, align 8, !tbaa !278
  br label %18

18:                                               ; preds = %16, %10
  %19 = call noundef ptr @_ZN11ImFontAtlas7AddFontEPK12ImFontConfig(ptr noundef nonnull align 8 dereferenceable(676) %0, ptr noundef nonnull %7)
  call void @llvm.lifetime.end.p0(i64 128, ptr nonnull %7) #42
  ret ptr %19
}